; Function Attrs: mustprogress nounwind uwtable
define hidden void @_ZNK20ClassLoaderMetaspace13usage_numbersEPmS0_S0_(ptr nocapture noundef nonnull readonly align 8 dereferenceable(32) %0, ptr noundef writeonly %1, ptr noundef writeonly %2, ptr noundef writeonly %3) local_unnamed_addr #0 align 2 {
  %5 = alloca i64, align 8
  %6 = alloca i64, align 8
  %7 = alloca i64, align 8
  %8 = alloca i64, align 8
  %9 = alloca i64, align 8
  %10 = alloca i64, align 8
  store i64 0, ptr %8, align 8
  store i64 0, ptr %9, align 8
  store i64 0, ptr %10, align 8
  %11 = load ptr, ptr %0, align 8
  %.not.i.i = icmp eq ptr %11, null
  br i1 %.not.i.i, label %_ZN11MutexLockerC2EP5MutexNS0_18SafepointCheckFlagE.exit, label %12

12:                                               ; preds = %4
  tail call void @_ZN5Mutex28lock_without_safepoint_checkEv(ptr noundef nonnull align 8 dereferenceable(104) %11) #6
  br label %_ZN11MutexLockerC2EP5MutexNS0_18SafepointCheckFlagE.exit

_ZN11MutexLockerC2EP5MutexNS0_18SafepointCheckFlagE.exit: ; preds = %4, %12
  %13 = getelementptr inbounds i8, ptr %0, i64 16
  %14 = load ptr, ptr %13, align 8
  call void @_ZNK9metaspace14MetaspaceArena13usage_numbersEPmS1_S1_(ptr noundef nonnull align 8 dereferenceable(56) %14, ptr noundef nonnull %5, ptr noundef nonnull %6, ptr noundef nonnull %7) #6
  %15 = load i8, ptr @UseCompressedClassPointers, align 1
  %16 = trunc i8 %15 to i1
  br i1 %16, label %17, label %20

17:                                               ; preds = %_ZN11MutexLockerC2EP5MutexNS0_18SafepointCheckFlagE.exit
  %18 = getelementptr inbounds i8, ptr %0, i64 24
  %19 = load ptr, ptr %18, align 8
  call void @_ZNK9metaspace14MetaspaceArena13usage_numbersEPmS1_S1_(ptr noundef nonnull align 8 dereferenceable(56) %19, ptr noundef nonnull %8, ptr noundef nonnull %9, ptr noundef nonnull %10) #6
  br label %20

20:                                               ; preds = %17, %_ZN11MutexLockerC2EP5MutexNS0_18SafepointCheckFlagE.exit
  br i1 %.not.i.i, label %_ZN11MutexLockerD2Ev.exit, label %21

21:                                               ; preds = %20
  call void @_ZN5Mutex6unlockEv(ptr noundef nonnull align 8 dereferenceable(104) %11) #6
  br label %_ZN11MutexLockerD2Ev.exit

_ZN11MutexLockerD2Ev.exit:                        ; preds = %20, %21
  %.not = icmp eq ptr %1, null
  br i1 %.not, label %26, label %22

22:                                               ; preds = %_ZN11MutexLockerD2Ev.exit
  %23 = load i64, ptr %5, align 8
  %24 = load i64, ptr %8, align 8
  %25 = add i64 %24, %23
  store i64 %25, ptr %1, align 8
  br label %26

26:                                               ; preds = %22, %_ZN11MutexLockerD2Ev.exit
  %.not9 = icmp eq ptr %2, null
  br i1 %.not9, label %31, label %27

27:                                               ; preds = %26
  %28 = load i64, ptr %6, align 8
  %29 = load i64, ptr %9, align 8
  %30 = add i64 %29, %28
  store i64 %30, ptr %2, align 8
  br label %31

31:                                               ; preds = %27, %26
  %.not10 = icmp eq ptr %3, null
  br i1 %.not10, label %36, label %32

32:                                               ; preds = %31
  %33 = load i64, ptr %7, align 8
  %34 = load i64, ptr %10, align 8
  %35 = add i64 %34, %33
  store i64 %35, ptr %3, align 8
  br label %36

36:                                               ; preds = %32, %31
  ret void
}